; Function Attrs: mustprogress nounwind uwtable
define dso_local void @_ZN4llvm2gi16CXXPredicateCodeC2ENSt7__cxx1112basic_stringIcSt11char_traitsIcESaIcEEEj(ptr noundef nonnull align 8 dereferenceable(72) %0, ptr noundef nonnull %1, i32 noundef %2) unnamed_addr #0 align 2 {
  %4 = alloca %"class.std::__cxx11::basic_string", align 8
  tail call void @_ZNSt7__cxx1112basic_stringIcSt11char_traitsIcESaIcEEC1ERKS4_(ptr noundef nonnull align 8 dereferenceable(32) %0, ptr noundef nonnull align 8 dereferenceable(32) %1) #17
  %5 = getelementptr inbounds nuw i8, ptr %0, i64 32
  store i32 %2, ptr %5, align 8
  %6 = getelementptr inbounds nuw i8, ptr %0, i64 40
  call void @_ZNSt7__cxx119to_stringEj(ptr dead_on_unwind nonnull writable sret(%"class.std::__cxx11::basic_string") align 8 %4, i32 noundef %2) #17
  %7 = call noundef nonnull align 8 dereferenceable(32) ptr @_ZNSt7__cxx1112basic_stringIcSt11char_traitsIcESaIcEE6insertEmPKc(ptr noundef nonnull align 8 dereferenceable(32) %4, i64 noundef 0, ptr noundef nonnull @.str) #17, !noalias !12
  call void @_ZNSt7__cxx1112basic_stringIcSt11char_traitsIcESaIcEEC1EOS4_(ptr noundef nonnull align 8 dereferenceable(32) %6, ptr noundef nonnull align 8 dereferenceable(32) %7) #17
  call void @_ZNSt7__cxx1112basic_stringIcSt11char_traitsIcESaIcEED1Ev(ptr noundef nonnull align 8 dereferenceable(32) %4) #17
  ret void
}